Certificate:
    Data:
        Version: 1 (0x0)
        Serial Number: 112 (0x70)
    Signature Algorithm: sha256WithRSAEncryption
        Issuer: O=NOVA ROOT, L=Mountain View, ST=California, C=US
        Validity
            Not Before: Mar  8 04:17:07 2016 GMT
            Not After : Mar  8 04:17:07 2017 GMT
        Subject: C=US, O=OpenStack, CN=9865281125944ee2-6a17ab24136b4fb4-2016-03-08T04:17:07Z
        Subject Public Key Info:
            Public Key Algorithm: rsaEncryption
                Public-Key: (2048 bit)
                Modulus:
                    00:c1:fc:43:89:6b:fa:09:58:98:c8:c9:61:66:2d:
                    50:8c:e2:56:6f:71:f6:32:51:21:07:d8:d7:9b:bd:
                    5b:38:0e:56:81:2a:43:bc:e9:70:b4:cb:ba:06:a3:
                    7d:28:c3:59:19:8a:ce:08:03:b2:e1:23:cc:54:22:
                    04:c8:ec:1e:a2:d2:3f:11:53:a1:44:75:58:69:dc:
                    fe:c7:3f:cd:b4:7f:bf:b8:20:98:a2:94:8e:a7:9b:
                    c4:4f:d1:96:6e:b2:94:31:46:fb:e7:14:6b:49:fc:
                    9d:c2:b4:c1:8b:54:32:80:e0:56:37:be:3b:4c:eb:
                    f4:f7:6d:1a:fa:20:33:82:93:0b:3e:7e:a6:4d:87:
                    aa:71:c1:c0:6b:b3:e5:e3:93:47:71:6c:49:3d:67:
                    6a:c8:c8:09:bc:5d:99:4d:53:1e:fa:6a:ce:8e:ed:
                    54:43:16:a6:02:7b:38:03:ee:99:94:1d:a8:af:4c:
                    d6:bc:21:d3:30:b9:63:73:8c:b8:16:85:0d:51:25:
                    19:64:1e:27:2d:c1:3e:13:a5:54:3a:74:e7:1e:b5:
                    f7:dc:a2:08:39:01:c3:29:2f:31:90:4b:9e:1c:e8:
                    2c:b0:c2:0b:c5:75:80:99:5b:bf:19:d8:18:33:c2:
                    f7:c5:d2:26:69:d5:15:ef:9e:b4:df:ea:06:aa:08:
                    02:2b
                Exponent: 65537 (0x10001)
    Signature Algorithm: sha256WithRSAEncryption
         7d:b2:bf:8d:d0:14:8a:5a:44:1e:c4:9c:d1:9e:d8:04:b9:aa:
         58:9b:f3:c7:e3:8b:d1:1d:79:ca:6b:8b:90:a0:2e:4c:a9:fc:
         4c:ef:b1:61:e8:04:07:ce:c3:30:3f:17:7b:06:21:f8:54:8b:
         5e:86:7d:93:ed:a9:7a:33:65:32:b9:07:79:67:dc:55:ad:d3:
         26:ad:e1:19:ce:ac:20:d5:ad:83:0b:f9:14:26:85:7f:1a:86:
         85:c2:ea:88:6d:66:96:e6:28:fe:29:b7:c2:e8:05:cd:0d:b9:
         ef:50:85:6f:8d:37:13:38:10:81:bb:0c:af:e9:0e:a1:27:74:
         08:af
-----BEGIN CERTIFICATE-----
MIICozCCAgwCAXAwDQYJKoZIhvcNAQELBQAwTjESMBAGA1UEChMJTk9WQSBST09U
MRYwFAYDVQQHEw1Nb3VudGFpbiBWaWV3MRMwEQYDVQQIEwpDYWxpZm9ybmlhMQsw
CQYDVQQGEwJVUzAeFw0xNjAzMDgwNDE3MDdaFw0xNzAzMDgwNDE3MDdaMGIxCzAJ
BgNVBAYTAlVTMRIwEAYDVQQKDAlPcGVuU3RhY2sxPzA9BgNVBAMMNjk4NjUyODEx
MjU5NDRlZTItNmExN2FiMjQxMzZiNGZiNC0yMDE2LTAzLTA4VDA0OjE3OjA3WjCC
ASIwDQYJKoZIhvcNAQEBBQADggEPADCCAQoCggEBAMH8Q4lr+glYmMjJYWYtUIzi
Vm9x9jJRIQfY15u9WzgOVoEqQ7zpcLTLugajfSjDWRmKzggDsuEjzFQiBMjsHqLS
PxFToUR1WGnc/sc/zbR/v7ggmKKUjqebxE/Rlm6ylDFG++cUa0n8ncK0wYtUMoDg
Vje+O0zr9PdtGvogM4KTCz5+pk2HqnHBwGuz5eOTR3FsST1nasjICbxdmU1THvpq
zo7tVEMWpgJ7OAPumZQdqK9M1rwh0zC5Y3OMuBaFDVElGWQeJy3BPhOlVDp05x61
99yiCDkBwykvMZBLnhzoLLDCC8V1gJlbvxnYGDPC98XSJmnVFe+etN/qBqoIAisC
AwEAATANBgkqhkiG9w0BAQsFAAOBgQB9sr+N0BSKWkQexJzRntgEuapYm/PH44vR
HXnKa4uQoC5MqfxM77Fh6AQHzsMwPxd7BiH4VItehn2T7al6M2UyuQd5Z9xVrdMm
reEZzqwg1a2DC/kUJoV/GoaFwuqIbWaW5ij+KbfC6AXNDbnvUIVvjTcTOBCBuwyv
6Q6hJ3QIrw==
-----END CERTIFICATE-----
